target datalayout = "e-m:e-p270:32:32-p271:32:32-p272:64:64-i64:64-i128:128-f80:128-n8:16:32:64-S128"
target triple = "x86_64-pc-linux-gnu"

%struct.sharedObjectsStruct = type { ptr, ptr, ptr, ptr, ptr, ptr, ptr, ptr, [4 x ptr], [4 x ptr], [4 x ptr], [4 x ptr], ptr, ptr, ptr, ptr, ptr, ptr, ptr, ptr, ptr, ptr, ptr, ptr, ptr, ptr, ptr, ptr, ptr, ptr, ptr, ptr, ptr, ptr, ptr, ptr, ptr, ptr, ptr, ptr, ptr, ptr, ptr, ptr, ptr, ptr, ptr, ptr, ptr, ptr, ptr, ptr, ptr, ptr, ptr, ptr, ptr, ptr, ptr, ptr, ptr, ptr, ptr, ptr, ptr, ptr, ptr, ptr, ptr, ptr, ptr, ptr, ptr, ptr, ptr, ptr, ptr, ptr, ptr, ptr, ptr, ptr, ptr, ptr, ptr, ptr, ptr, ptr, [10 x ptr], [10000 x ptr], [32 x ptr], [32 x ptr], [32 x ptr], [32 x ptr], ptr, ptr }
%struct.zlexrangespec = type { ptr, ptr, i32, i32 }

@shared = external global %struct.sharedObjectsStruct, align 8

; Function Attrs: nounwind uwtable
define dso_local i32 @sdscmplex(ptr noundef %0, ptr noundef %1) #0 {
  %3 = alloca i32, align 4
  %4 = alloca ptr, align 8
  %5 = alloca ptr, align 8
  store ptr %0, ptr %4, align 8, !tbaa !11
  store ptr %1, ptr %5, align 8, !tbaa !11
  %6 = load ptr, ptr %4, align 8, !tbaa !11
  %7 = load ptr, ptr %5, align 8, !tbaa !11
  %8 = icmp eq ptr %6, %7
  br i1 %8, label %9, label %10

9:                                                ; preds = %2
  store i32 0, ptr %3, align 4
  br label %32

10:                                               ; preds = %2
  %11 = load ptr, ptr %4, align 8, !tbaa !11
  %12 = load ptr, ptr getelementptr inbounds nuw (%struct.sharedObjectsStruct, ptr @shared, i32 0, i32 94), align 8, !tbaa !89
  %13 = icmp eq ptr %11, %12
  br i1 %13, label %18, label %14

14:                                               ; preds = %10
  %15 = load ptr, ptr %5, align 8, !tbaa !11
  %16 = load ptr, ptr getelementptr inbounds nuw (%struct.sharedObjectsStruct, ptr @shared, i32 0, i32 95), align 8, !tbaa !87
  %17 = icmp eq ptr %15, %16
  br i1 %17, label %18, label %19

18:                                               ; preds = %14, %10
  store i32 -1, ptr %3, align 4
  br label %32

19:                                               ; preds = %14
  %20 = load ptr, ptr %4, align 8, !tbaa !11
  %21 = load ptr, ptr getelementptr inbounds nuw (%struct.sharedObjectsStruct, ptr @shared, i32 0, i32 95), align 8, !tbaa !87
  %22 = icmp eq ptr %20, %21
  br i1 %22, label %27, label %23

23:                                               ; preds = %19
  %24 = load ptr, ptr %5, align 8, !tbaa !11
  %25 = load ptr, ptr getelementptr inbounds nuw (%struct.sharedObjectsStruct, ptr @shared, i32 0, i32 94), align 8, !tbaa !89
  %26 = icmp eq ptr %24, %25
  br i1 %26, label %27, label %28

27:                                               ; preds = %23, %19
  store i32 1, ptr %3, align 4
  br label %32

28:                                               ; preds = %23
  %29 = load ptr, ptr %4, align 8, !tbaa !11
  %30 = load ptr, ptr %5, align 8, !tbaa !11
  %31 = call i32 @sdscmp(ptr noundef %29, ptr noundef %30)
  store i32 %31, ptr %3, align 4
  br label %32

32:                                               ; preds = %28, %27, %18, %9
  %33 = load i32, ptr %3, align 4
  ret i32 %33
}

; Function Attrs: nounwind uwtable
define dso_local i32 @zslLexValueGteMin(ptr noundef %0, ptr noundef %1) #0 {
  %3 = alloca ptr, align 8
  %4 = alloca ptr, align 8
  store ptr %0, ptr %3, align 8, !tbaa !11
  store ptr %1, ptr %4, align 8, !tbaa !45
  %5 = load ptr, ptr %4, align 8, !tbaa !45
  %6 = getelementptr inbounds nuw %struct.zlexrangespec, ptr %5, i32 0, i32 2
  %7 = load i32, ptr %6, align 8, !tbaa !68
  %8 = icmp ne i32 %7, 0
  br i1 %8, label %9, label %17

9:                                                ; preds = %2
  %10 = load ptr, ptr %3, align 8, !tbaa !11
  %11 = load ptr, ptr %4, align 8, !tbaa !45
  %12 = getelementptr inbounds nuw %struct.zlexrangespec, ptr %11, i32 0, i32 0
  %13 = load ptr, ptr %12, align 8, !tbaa !70
  %14 = call i32 @sdscmplex(ptr noundef %10, ptr noundef %13)
  %15 = icmp sgt i32 %14, 0
  %16 = zext i1 %15 to i32
  br label %25

17:                                               ; preds = %2
  %18 = load ptr, ptr %3, align 8, !tbaa !11
  %19 = load ptr, ptr %4, align 8, !tbaa !45
  %20 = getelementptr inbounds nuw %struct.zlexrangespec, ptr %19, i32 0, i32 0
  %21 = load ptr, ptr %20, align 8, !tbaa !70
  %22 = call i32 @sdscmplex(ptr noundef %18, ptr noundef %21)
  %23 = icmp sge i32 %22, 0
  %24 = zext i1 %23 to i32
  br label %25

25:                                               ; preds = %17, %9
  %26 = phi i32 [ %16, %9 ], [ %24, %17 ]
  ret i32 %26
}