; Function Attrs: nounwind uwtable
define dso_local range(i32 0, 2) i32 @zslLexValueGteMin(ptr noundef %0, ptr noundef readonly captures(none) %1) local_unnamed_addr #0 {
  %3 = getelementptr inbounds nuw i8, ptr %1, i64 16
  %4 = load i32, ptr %3, align 8, !tbaa !58
  %.not = icmp eq i32 %4, 0
  %5 = load ptr, ptr %1, align 8, !tbaa !60
  %6 = icmp eq ptr %0, %5
  br i1 %.not, label %17, label %7

7:                                                ; preds = %2
  br i1 %6, label %sdscmplex.exit, label %8

8:                                                ; preds = %7
  %9 = load ptr, ptr getelementptr inbounds nuw (i8, ptr @shared, i64 81904), align 8, !tbaa !61
  %10 = icmp eq ptr %0, %9
  br i1 %10, label %sdscmplex.exit, label %11

11:                                               ; preds = %8
  %12 = load ptr, ptr getelementptr inbounds nuw (i8, ptr @shared, i64 81912), align 8, !tbaa !64
  %13 = icmp eq ptr %5, %12
  br i1 %13, label %sdscmplex.exit, label %14

14:                                               ; preds = %11
  %15 = icmp eq ptr %0, %12
  %16 = icmp eq ptr %5, %9
  %or.cond.i = or i1 %16, %15
  br i1 %or.cond.i, label %sdscmplex.exit, label %sdscmplex.exit.sink.split

17:                                               ; preds = %2
  br i1 %6, label %sdscmplex.exit, label %18

18:                                               ; preds = %17
  %19 = load ptr, ptr getelementptr inbounds nuw (i8, ptr @shared, i64 81904), align 8, !tbaa !61
  %20 = icmp eq ptr %0, %19
  br i1 %20, label %sdscmplex.exit, label %21

21:                                               ; preds = %18
  %22 = load ptr, ptr getelementptr inbounds nuw (i8, ptr @shared, i64 81912), align 8, !tbaa !64
  %23 = icmp eq ptr %5, %22
  br i1 %23, label %sdscmplex.exit, label %24

24:                                               ; preds = %21
  %25 = icmp eq ptr %0, %22
  %26 = icmp eq ptr %5, %19
  %or.cond.i5 = or i1 %26, %25
  br i1 %or.cond.i5, label %sdscmplex.exit, label %sdscmplex.exit.sink.split

sdscmplex.exit.sink.split:                        ; preds = %24, %14
  %.sink8 = phi i32 [ 0, %14 ], [ -1, %24 ]
  %27 = tail call i32 @sdscmp(ptr noundef %0, ptr noundef %5) #18
  %28 = icmp sgt i32 %27, %.sink8
  %29 = zext i1 %28 to i32
  br label %sdscmplex.exit

sdscmplex.exit:                                   ; preds = %sdscmplex.exit.sink.split, %24, %21, %18, %17, %14, %11, %8, %7
  %.in = phi i32 [ 0, %7 ], [ 0, %11 ], [ 0, %8 ], [ 1, %14 ], [ 1, %17 ], [ 0, %21 ], [ 0, %18 ], [ 1, %24 ], [ %29, %sdscmplex.exit.sink.split ]
  ret i32 %.in
}